; ModuleID = '34/2865.c'
source_filename = "34/2865.c"
target datalayout = "e-m:e-p270:32:32-p271:32:32-p272:64:64-i64:64-f80:128-n8:16:32:64-S128"
target triple = "x86_64-pc-linux-gnu"

@.str = private unnamed_addr constant [3 x i8] c"%d\00", align 1
@.str.1 = private unnamed_addr constant [4 x i8] c"End\00", align 1
@.str.2 = private unnamed_addr constant [9 x i8] c"%d/2=%d\0A\00", align 1
@.str.3 = private unnamed_addr constant [11 x i8] c"%d*3+1=%d\0A\00", align 1

; Function Attrs: noinline nounwind uwtable
define dso_local i32 @main() #0 {
  %1 = alloca i32, align 4
  %2 = alloca i32, align 4
  %3 = alloca i32, align 4
  %4 = alloca i32, align 4
  %5 = alloca i32, align 4
  store i32 0, i32* %1, align 4
  %6 = call i32 (i8*, ...) @__isoc99_scanf(i8* getelementptr inbounds ([3 x i8], [3 x i8]* @.str, i64 0, i64 0), i32* %2)
  store i32 1000, i32* %5, align 4
  store i32 0, i32* %3, align 4
  br label %7

7:                                                ; preds = %49, %0
  %8 = load i32, i32* %3, align 4
  %9 = load i32, i32* %5, align 4
  %10 = icmp slt i32 %8, %9
  br i1 %10, label %11, label %52

11:                                               ; preds = %7
  %12 = load i32, i32* %2, align 4
  %13 = icmp eq i32 %12, 1
  br i1 %13, label %14, label %16

14:                                               ; preds = %11
  %15 = call i32 (i8*, ...) @printf(i8* getelementptr inbounds ([4 x i8], [4 x i8]* @.str.1, i64 0, i64 0))
  br label %52

16:                                               ; preds = %11
  %17 = load i32, i32* %2, align 4
  %18 = icmp ne i32 %17, 1
  br i1 %18, label %19, label %48

19:                                               ; preds = %16
  %20 = load i32, i32* %2, align 4
  %21 = srem i32 %20, 2
  %22 = icmp eq i32 %21, 0
  br i1 %22, label %23, label %35

23:                                               ; preds = %19
  %24 = load i32, i32* %2, align 4
  %25 = sdiv i32 %24, 2
  store i32 %25, i32* %4, align 4
  %26 = load i32, i32* %2, align 4
  %27 = load i32, i32* %4, align 4
  %28 = call i32 (i8*, ...) @printf(i8* getelementptr inbounds ([9 x i8], [9 x i8]* @.str.2, i64 0, i64 0), i32 %26, i32 %27)
  %29 = load i32, i32* %4, align 4
  store i32 %29, i32* %2, align 4
  %30 = load i32, i32* %2, align 4
  %31 = icmp eq i32 %30, 1
  br i1 %31, label %32, label %34

32:                                               ; preds = %23
  %33 = call i32 (i8*, ...) @printf(i8* getelementptr inbounds ([4 x i8], [4 x i8]* @.str.1, i64 0, i64 0))
  br label %52

34:                                               ; preds = %23
  br label %35

35:                                               ; preds = %34, %19
  %36 = load i32, i32* %2, align 4
  %37 = srem i32 %36, 2
  %38 = icmp eq i32 %37, 1
  br i1 %38, label %39, label %47

39:                                               ; preds = %35
  %40 = load i32, i32* %2, align 4
  %41 = mul nsw i32 %40, 3
  %42 = add nsw i32 %41, 1
  store i32 %42, i32* %4, align 4
  %43 = load i32, i32* %2, align 4
  %44 = load i32, i32* %4, align 4
  %45 = call i32 (i8*, ...) @printf(i8* getelementptr inbounds ([11 x i8], [11 x i8]* @.str.3, i64 0, i64 0), i32 %43, i32 %44)
  %46 = load i32, i32* %4, align 4
  store i32 %46, i32* %2, align 4
  br label %47

47:                                               ; preds = %39, %35
  br label %48

48:                                               ; preds = %47, %16
  br label %49

49:                                               ; preds = %48
  %50 = load i32, i32* %3, align 4
  %51 = add nsw i32 %50, 1
  store i32 %51, i32* %3, align 4
  br label %7

52:                                               ; preds = %32, %14, %7
  ret i32 0
}

declare dso_local i32 @__isoc99_scanf(i8*, ...) #1

declare dso_local i32 @printf(i8*, ...) #1


!llvm.module.flags = !{!0}
!llvm.ident = !{!1}

!0 = !{i32 1, !"wchar_size", i32 4}
!1 = !{!"clang version 10.0.0-4ubuntu1 "}
